; ModuleID = '2/801.c'
source_filename = "2/801.c"
target datalayout = "e-m:e-p270:32:32-p271:32:32-p272:64:64-i64:64-f80:128-n8:16:32:64-S128"
target triple = "x86_64-pc-linux-gnu"

@.str = private unnamed_addr constant [3 x i8] c"%d\00", align 1
@.str.1 = private unnamed_addr constant [6 x i8] c"%s %s\00", align 1
@.str.2 = private unnamed_addr constant [7 x i8] c"%c\0A%d\0A\00", align 1
@.str.3 = private unnamed_addr constant [4 x i8] c"%s\0A\00", align 1

; Function Attrs: noinline nounwind uwtable
define dso_local void @main() #0 {
  %1 = alloca i32, align 4
  %2 = alloca i32, align 4
  %3 = alloca i32, align 4
  %4 = alloca i32, align 4
  %5 = alloca [26 x i32], align 16
  %6 = alloca i32, align 4
  %7 = alloca i32, align 4
  %8 = alloca [100 x [4 x i8]], align 16
  %9 = alloca [100 x [10 x i8]], align 16
  %10 = alloca i8, align 1
  %11 = bitcast [26 x i32]* %5 to i8*
  call void @llvm.memset.p0i8.i64(i8* align 16 %11, i8 0, i64 104, i1 false)
  store i32 0, i32* %6, align 4
  %12 = call i32 (i8*, ...) @__isoc99_scanf(i8* getelementptr inbounds ([3 x i8], [3 x i8]* @.str, i64 0, i64 0), i32* %3)
  store i32 0, i32* %1, align 4
  br label %13

13:                                               ; preds = %27, %0
  %14 = load i32, i32* %1, align 4
  %15 = load i32, i32* %3, align 4
  %16 = icmp slt i32 %14, %15
  br i1 %16, label %17, label %30

17:                                               ; preds = %13
  %18 = load i32, i32* %1, align 4
  %19 = sext i32 %18 to i64
  %20 = getelementptr inbounds [100 x [4 x i8]], [100 x [4 x i8]]* %8, i64 0, i64 %19
  %21 = getelementptr inbounds [4 x i8], [4 x i8]* %20, i64 0, i64 0
  %22 = load i32, i32* %1, align 4
  %23 = sext i32 %22 to i64
  %24 = getelementptr inbounds [100 x [10 x i8]], [100 x [10 x i8]]* %9, i64 0, i64 %23
  %25 = getelementptr inbounds [10 x i8], [10 x i8]* %24, i64 0, i64 0
  %26 = call i32 (i8*, ...) @__isoc99_scanf(i8* getelementptr inbounds ([6 x i8], [6 x i8]* @.str.1, i64 0, i64 0), i8* %21, i8* %25)
  br label %27

27:                                               ; preds = %17
  %28 = load i32, i32* %1, align 4
  %29 = add nsw i32 %28, 1
  store i32 %29, i32* %1, align 4
  br label %13

30:                                               ; preds = %13
  store i32 0, i32* %1, align 4
  br label %31

31:                                               ; preds = %64, %30
  %32 = load i32, i32* %1, align 4
  %33 = load i32, i32* %3, align 4
  %34 = icmp slt i32 %32, %33
  br i1 %34, label %35, label %67

35:                                               ; preds = %31
  %36 = load i32, i32* %1, align 4
  %37 = sext i32 %36 to i64
  %38 = getelementptr inbounds [100 x [10 x i8]], [100 x [10 x i8]]* %9, i64 0, i64 %37
  %39 = getelementptr inbounds [10 x i8], [10 x i8]* %38, i64 0, i64 0
  %40 = call i64 @strlen(i8* %39) #4
  %41 = trunc i64 %40 to i32
  store i32 %41, i32* %4, align 4
  store i32 0, i32* %2, align 4
  br label %42

42:                                               ; preds = %60, %35
  %43 = load i32, i32* %2, align 4
  %44 = load i32, i32* %4, align 4
  %45 = icmp slt i32 %43, %44
  br i1 %45, label %46, label %63

46:                                               ; preds = %42
  %47 = load i32, i32* %1, align 4
  %48 = sext i32 %47 to i64
  %49 = getelementptr inbounds [100 x [10 x i8]], [100 x [10 x i8]]* %9, i64 0, i64 %48
  %50 = load i32, i32* %2, align 4
  %51 = sext i32 %50 to i64
  %52 = getelementptr inbounds [10 x i8], [10 x i8]* %49, i64 0, i64 %51
  %53 = load i8, i8* %52, align 1
  %54 = sext i8 %53 to i32
  %55 = sub nsw i32 %54, 65
  %56 = sext i32 %55 to i64
  %57 = getelementptr inbounds [26 x i32], [26 x i32]* %5, i64 0, i64 %56
  %58 = load i32, i32* %57, align 4
  %59 = add nsw i32 %58, 1
  store i32 %59, i32* %57, align 4
  br label %60

60:                                               ; preds = %46
  %61 = load i32, i32* %2, align 4
  %62 = add nsw i32 %61, 1
  store i32 %62, i32* %2, align 4
  br label %42

63:                                               ; preds = %42
  br label %64

64:                                               ; preds = %63
  %65 = load i32, i32* %1, align 4
  %66 = add nsw i32 %65, 1
  store i32 %66, i32* %1, align 4
  br label %31

67:                                               ; preds = %31
  store i32 0, i32* %1, align 4
  br label %68

68:                                               ; preds = %85, %67
  %69 = load i32, i32* %1, align 4
  %70 = icmp slt i32 %69, 26
  br i1 %70, label %71, label %88

71:                                               ; preds = %68
  %72 = load i32, i32* %6, align 4
  %73 = load i32, i32* %1, align 4
  %74 = sext i32 %73 to i64
  %75 = getelementptr inbounds [26 x i32], [26 x i32]* %5, i64 0, i64 %74
  %76 = load i32, i32* %75, align 4
  %77 = icmp slt i32 %72, %76
  br i1 %77, label %78, label %84

78:                                               ; preds = %71
  %79 = load i32, i32* %1, align 4
  %80 = sext i32 %79 to i64
  %81 = getelementptr inbounds [26 x i32], [26 x i32]* %5, i64 0, i64 %80
  %82 = load i32, i32* %81, align 4
  store i32 %82, i32* %6, align 4
  %83 = load i32, i32* %1, align 4
  store i32 %83, i32* %7, align 4
  br label %84

84:                                               ; preds = %78, %71
  br label %85

85:                                               ; preds = %84
  %86 = load i32, i32* %1, align 4
  %87 = add nsw i32 %86, 1
  store i32 %87, i32* %1, align 4
  br label %68

88:                                               ; preds = %68
  %89 = load i32, i32* %7, align 4
  %90 = add nsw i32 %89, 65
  %91 = trunc i32 %90 to i8
  store i8 %91, i8* %10, align 1
  %92 = load i8, i8* %10, align 1
  %93 = sext i8 %92 to i32
  %94 = load i32, i32* %6, align 4
  %95 = call i32 (i8*, ...) @printf(i8* getelementptr inbounds ([7 x i8], [7 x i8]* @.str.2, i64 0, i64 0), i32 %93, i32 %94)
  store i32 0, i32* %1, align 4
  br label %96

96:                                               ; preds = %138, %88
  %97 = load i32, i32* %1, align 4
  %98 = load i32, i32* %3, align 4
  %99 = icmp slt i32 %97, %98
  br i1 %99, label %100, label %141

100:                                              ; preds = %96
  %101 = load i32, i32* %1, align 4
  %102 = sext i32 %101 to i64
  %103 = getelementptr inbounds [100 x [10 x i8]], [100 x [10 x i8]]* %9, i64 0, i64 %102
  %104 = getelementptr inbounds [10 x i8], [10 x i8]* %103, i64 0, i64 0
  %105 = call i64 @strlen(i8* %104) #4
  %106 = trunc i64 %105 to i32
  store i32 %106, i32* %4, align 4
  store i32 0, i32* %6, align 4
  store i32 0, i32* %2, align 4
  br label %107

107:                                              ; preds = %125, %100
  %108 = load i32, i32* %2, align 4
  %109 = load i32, i32* %4, align 4
  %110 = icmp slt i32 %108, %109
  br i1 %110, label %111, label %128

111:                                              ; preds = %107
  %112 = load i32, i32* %1, align 4
  %113 = sext i32 %112 to i64
  %114 = getelementptr inbounds [100 x [10 x i8]], [100 x [10 x i8]]* %9, i64 0, i64 %113
  %115 = load i32, i32* %2, align 4
  %116 = sext i32 %115 to i64
  %117 = getelementptr inbounds [10 x i8], [10 x i8]* %114, i64 0, i64 %116
  %118 = load i8, i8* %117, align 1
  %119 = sext i8 %118 to i32
  %120 = load i8, i8* %10, align 1
  %121 = sext i8 %120 to i32
  %122 = icmp eq i32 %119, %121
  br i1 %122, label %123, label %124

123:                                              ; preds = %111
  store i32 1, i32* %6, align 4
  br label %124

124:                                              ; preds = %123, %111
  br label %125

125:                                              ; preds = %124
  %126 = load i32, i32* %2, align 4
  %127 = add nsw i32 %126, 1
  store i32 %127, i32* %2, align 4
  br label %107

128:                                              ; preds = %107
  %129 = load i32, i32* %6, align 4
  %130 = icmp eq i32 %129, 1
  br i1 %130, label %131, label %137

131:                                              ; preds = %128
  %132 = load i32, i32* %1, align 4
  %133 = sext i32 %132 to i64
  %134 = getelementptr inbounds [100 x [4 x i8]], [100 x [4 x i8]]* %8, i64 0, i64 %133
  %135 = getelementptr inbounds [4 x i8], [4 x i8]* %134, i64 0, i64 0
  %136 = call i32 (i8*, ...) @printf(i8* getelementptr inbounds ([4 x i8], [4 x i8]* @.str.3, i64 0, i64 0), i8* %135)
  br label %137

137:                                              ; preds = %131, %128
  br label %138

138:                                              ; preds = %137
  %139 = load i32, i32* %1, align 4
  %140 = add nsw i32 %139, 1
  store i32 %140, i32* %1, align 4
  br label %96

141:                                              ; preds = %96
  ret void
}

; Function Attrs: argmemonly nounwind willreturn
declare void @llvm.memset.p0i8.i64(i8* nocapture writeonly, i8, i64, i1 immarg) #1

declare dso_local i32 @__isoc99_scanf(i8*, ...) #2

; Function Attrs: nounwind readonly
declare dso_local i64 @strlen(i8*) #3

declare dso_local i32 @printf(i8*, ...) #2


!llvm.module.flags = !{!0}
!llvm.ident = !{!1}

!0 = !{i32 1, !"wchar_size", i32 4}
!1 = !{!"clang version 10.0.0-4ubuntu1 "}
